target datalayout = "e-m:e-p270:32:32-p271:32:32-p272:64:64-i64:64-i128:128-f80:128-n8:16:32:64-S128"
target triple = "x86_64-pc-linux-gnu"

%struct._object = type { %union.anon, ptr }
%union.anon = type { i64 }
%struct.anextawaitableobject = type { %struct._object, ptr, ptr }
%struct.anon = type { i32, i32 }

@PyExc_StopAsyncIteration = external global ptr, align 8
@.str.20 = private unnamed_addr constant [2 x i8] c"O\00", align 1

; Function Attrs: alwaysinline nounwind uwtable
define internal i32 @_Py_IsImmortal(ptr noundef %0) #4 {
  %2 = alloca ptr, align 8
  store ptr %0, ptr %2, align 8, !tbaa !4
  %3 = load ptr, ptr %2, align 8, !tbaa !4
  %4 = getelementptr inbounds nuw %struct._object, ptr %3, i32 0, i32 0
  %5 = getelementptr inbounds nuw %struct.anon, ptr %4, i32 0, i32 0
  %6 = load i32, ptr %5, align 8, !tbaa !112
  %7 = icmp slt i32 %6, 0
  %8 = zext i1 %7 to i32
  ret i32 %8
}

; Function Attrs: alwaysinline nounwind uwtable
define internal void @Py_DECREF(ptr noundef %0) #4 {
  %2 = alloca ptr, align 8
  store ptr %0, ptr %2, align 8, !tbaa !4
  %3 = load ptr, ptr %2, align 8, !tbaa !4
  %4 = call i32 @_Py_IsImmortal(ptr noundef %3)
  %5 = icmp ne i32 %4, 0
  br i1 %5, label %6, label %7

6:                                                ; preds = %1
  br label %16

7:                                                ; preds = %1
  %8 = load ptr, ptr %2, align 8, !tbaa !4
  %9 = getelementptr inbounds nuw %struct._object, ptr %8, i32 0, i32 0
  %10 = getelementptr inbounds nuw %struct.anon, ptr %9, i32 0, i32 0
  %11 = load i32, ptr %10, align 8, !tbaa !112
  %12 = add i32 %11, -1
  store i32 %12, ptr %10, align 8, !tbaa !112
  %13 = icmp eq i32 %12, 0
  br i1 %13, label %14, label %16

14:                                               ; preds = %7
  %15 = load ptr, ptr %2, align 8, !tbaa !4
  call void @_Py_Dealloc(ptr noundef %15)
  br label %16

16:                                               ; preds = %6, %14, %7
  ret void
}

; Function Attrs: nounwind uwtable
define internal ptr @anextawaitable_proxy(ptr noundef %0, ptr noundef %1, ptr noundef %2) #0 {
  %4 = alloca ptr, align 8
  %5 = alloca ptr, align 8
  %6 = alloca ptr, align 8
  %7 = alloca ptr, align 8
  %8 = alloca ptr, align 8
  %9 = alloca i32, align 4
  %10 = alloca ptr, align 8
  store ptr %0, ptr %5, align 8, !tbaa !9
  store ptr %1, ptr %6, align 8, !tbaa !113
  store ptr %2, ptr %7, align 8, !tbaa !4
  call void @llvm.lifetime.start.p0(i64 8, ptr %8) #7
  %11 = load ptr, ptr %5, align 8, !tbaa !9
  %12 = call ptr @anextawaitable_getiter(ptr noundef %11)
  store ptr %12, ptr %8, align 8, !tbaa !4
  %13 = load ptr, ptr %8, align 8, !tbaa !4
  %14 = icmp eq ptr %13, null
  br i1 %14, label %15, label %16

15:                                               ; preds = %3
  store ptr null, ptr %4, align 8
  store i32 1, ptr %9, align 4
  br label %37

16:                                               ; preds = %3
  call void @llvm.lifetime.start.p0(i64 8, ptr %10) #7
  %17 = load ptr, ptr %8, align 8, !tbaa !4
  %18 = load ptr, ptr %6, align 8, !tbaa !113
  %19 = load ptr, ptr %7, align 8, !tbaa !4
  %20 = call ptr (ptr, ptr, ptr, ...) @PyObject_CallMethod(ptr noundef %17, ptr noundef %18, ptr noundef @.str.20, ptr noundef %19)
  store ptr %20, ptr %10, align 8, !tbaa !4
  %21 = load ptr, ptr %8, align 8, !tbaa !4
  call void @Py_DECREF(ptr noundef %21)
  %22 = load ptr, ptr %10, align 8, !tbaa !4
  %23 = icmp ne ptr %22, null
  br i1 %23, label %24, label %26

24:                                               ; preds = %16
  %25 = load ptr, ptr %10, align 8, !tbaa !4
  store ptr %25, ptr %4, align 8
  store i32 1, ptr %9, align 4
  br label %36

26:                                               ; preds = %16
  %27 = load ptr, ptr @PyExc_StopAsyncIteration, align 8, !tbaa !4
  %28 = call i32 @PyErr_ExceptionMatches(ptr noundef %27)
  %29 = icmp ne i32 %28, 0
  br i1 %29, label %30, label %35

30:                                               ; preds = %26
  call void @PyErr_Clear()
  %31 = load ptr, ptr %5, align 8, !tbaa !9
  %32 = getelementptr inbounds nuw %struct.anextawaitableobject, ptr %31, i32 0, i32 2
  %33 = load ptr, ptr %32, align 8, !tbaa !103
  %34 = call i32 @_PyGen_SetStopIterationValue(ptr noundef %33)
  br label %35

35:                                               ; preds = %30, %26
  store ptr null, ptr %4, align 8
  store i32 1, ptr %9, align 4
  br label %36

36:                                               ; preds = %35, %24
  call void @llvm.lifetime.end.p0(i64 8, ptr %10) #7
  br label %37

37:                                               ; preds = %36, %15
  call void @llvm.lifetime.end.p0(i64 8, ptr %8) #7
  %38 = load ptr, ptr %4, align 8
  ret ptr %38
}