; Function Attrs: nounwind uwtable
define internal fastcc ptr @anextawaitable_proxy(ptr noundef readonly captures(none) %0, ptr noundef %1, ptr noundef %2) unnamed_addr #0 {
  %4 = getelementptr i8, ptr %0, i64 16
  %.val = load ptr, ptr %4, align 8, !tbaa !100
  %5 = tail call fastcc ptr @anextawaitable_getiter(ptr %.val)
  %6 = icmp eq ptr %5, null
  br i1 %6, label %21, label %7

7:                                                ; preds = %3
  %8 = tail call ptr (ptr, ptr, ptr, ...) @PyObject_CallMethod(ptr noundef nonnull %5, ptr noundef %1, ptr noundef nonnull @.str.20, ptr noundef %2) #4
  %9 = load i32, ptr %5, align 8, !tbaa !13
  %.not.i = icmp sgt i32 %9, -1
  br i1 %.not.i, label %10, label %Py_DECREF.exit

10:                                               ; preds = %7
  %11 = add nsw i32 %9, -1
  store i32 %11, ptr %5, align 8, !tbaa !13
  %12 = icmp eq i32 %11, 0
  br i1 %12, label %13, label %Py_DECREF.exit

13:                                               ; preds = %10
  tail call void @_Py_Dealloc(ptr noundef nonnull %5) #4
  br label %Py_DECREF.exit

Py_DECREF.exit:                                   ; preds = %7, %10, %13
  %.not = icmp eq ptr %8, null
  br i1 %.not, label %14, label %21

14:                                               ; preds = %Py_DECREF.exit
  %15 = load ptr, ptr @PyExc_StopAsyncIteration, align 8, !tbaa !99
  %16 = tail call i32 @PyErr_ExceptionMatches(ptr noundef %15) #4
  %.not12 = icmp eq i32 %16, 0
  br i1 %.not12, label %21, label %17

17:                                               ; preds = %14
  tail call void @PyErr_Clear() #4
  %18 = getelementptr inbounds nuw i8, ptr %0, i64 24
  %19 = load ptr, ptr %18, align 8, !tbaa !102
  %20 = tail call i32 @_PyGen_SetStopIterationValue(ptr noundef %19) #4
  br label %21

21:                                               ; preds = %Py_DECREF.exit, %17, %14, %3
  %.0 = phi ptr [ null, %3 ], [ %8, %Py_DECREF.exit ], [ null, %17 ], [ null, %14 ]
  ret ptr %.0
}